target datalayout = "e-m:e-p270:32:32-p271:32:32-p272:64:64-i64:64-i128:128-f80:128-n8:16:32:64-S128"
target triple = "x86_64-pc-linux-gnu"

%"struct.pkpy::SStream" = type <{ %"struct.pkpy::pod_vector", i32, [4 x i8] }>
%"struct.pkpy::pod_vector" = type { i32, i32, ptr }

; Function Attrs: mustprogress nounwind uwtable
define linkonce_odr void @_ZSt4swapIcENSt9enable_ifIXsr6__and_ISt6__not_ISt15__is_tuple_likeIT_EESt21is_move_constructibleIS3_ESt18is_move_assignableIS3_EEE5valueEvE4typeERS3_SC_(ptr noundef nonnull align 1 dereferenceable(1) %0, ptr noundef nonnull align 1 dereferenceable(1) %1) #5 comdat {
  %3 = alloca ptr, align 8
  %4 = alloca ptr, align 8
  %5 = alloca i8, align 1
  store ptr %0, ptr %3, align 8
  store ptr %1, ptr %4, align 8
  %6 = load ptr, ptr %3, align 8
  %7 = load i8, ptr %6, align 1
  store i8 %7, ptr %5, align 1
  %8 = load ptr, ptr %4, align 8
  %9 = load i8, ptr %8, align 1
  %10 = load ptr, ptr %3, align 8
  store i8 %9, ptr %10, align 1
  %11 = load i8, ptr %5, align 1
  %12 = load ptr, ptr %4, align 8
  store i8 %11, ptr %12, align 1
  ret void
}

; Function Attrs: mustprogress nounwind uwtable
define linkonce_odr void @_ZSt9iter_swapIPcS0_EvT_T0_(ptr noundef %0, ptr noundef %1) #5 comdat {
  %3 = alloca ptr, align 8
  %4 = alloca ptr, align 8
  store ptr %0, ptr %3, align 8
  store ptr %1, ptr %4, align 8
  %5 = load ptr, ptr %3, align 8
  %6 = load ptr, ptr %4, align 8
  call void @_ZSt4swapIcENSt9enable_ifIXsr6__and_ISt6__not_ISt15__is_tuple_likeIT_EESt21is_move_constructibleIS3_ESt18is_move_assignableIS3_EEE5valueEvE4typeERS3_SC_(ptr noundef nonnull align 1 dereferenceable(1) %5, ptr noundef nonnull align 1 dereferenceable(1) %6) #3
  ret void
}

; Function Attrs: mustprogress uwtable
define linkonce_odr void @_ZSt9__reverseIPcEvT_S1_St26random_access_iterator_tag(ptr noundef %0, ptr noundef %1) #4 comdat {
  %3 = alloca ptr, align 8
  %4 = alloca ptr, align 8
  store ptr %0, ptr %3, align 8
  store ptr %1, ptr %4, align 8
  %5 = load ptr, ptr %3, align 8
  %6 = load ptr, ptr %4, align 8
  %7 = icmp eq ptr %5, %6
  br i1 %7, label %8, label %9

8:                                                ; preds = %2
  br label %23

9:                                                ; preds = %2
  %10 = load ptr, ptr %4, align 8
  %11 = getelementptr inbounds i8, ptr %10, i32 -1
  store ptr %11, ptr %4, align 8
  br label %12

12:                                               ; preds = %16, %9
  %13 = load ptr, ptr %3, align 8
  %14 = load ptr, ptr %4, align 8
  %15 = icmp ult ptr %13, %14
  br i1 %15, label %16, label %23

16:                                               ; preds = %12
  %17 = load ptr, ptr %3, align 8
  %18 = load ptr, ptr %4, align 8
  call void @_ZSt9iter_swapIPcS0_EvT_T0_(ptr noundef %17, ptr noundef %18)
  %19 = load ptr, ptr %3, align 8
  %20 = getelementptr inbounds i8, ptr %19, i32 1
  store ptr %20, ptr %3, align 8
  %21 = load ptr, ptr %4, align 8
  %22 = getelementptr inbounds i8, ptr %21, i32 -1
  store ptr %22, ptr %4, align 8
  br label %12, !llvm.loop !46

23:                                               ; preds = %12, %8
  ret void
}

; Function Attrs: mustprogress nounwind uwtable
define linkonce_odr void @_ZSt19__iterator_categoryIPcENSt15iterator_traitsIT_E17iterator_categoryERKS2_(ptr noundef nonnull align 8 dereferenceable(8) %0) #5 comdat {
  %2 = alloca ptr, align 8
  store ptr %0, ptr %2, align 8
  ret void
}

; Function Attrs: mustprogress uwtable
define linkonce_odr void @_ZSt7reverseIPcEvT_S1_(ptr noundef %0, ptr noundef %1) #4 comdat {
  %3 = alloca ptr, align 8
  %4 = alloca ptr, align 8
  store ptr %0, ptr %3, align 8
  store ptr %1, ptr %4, align 8
  %5 = load ptr, ptr %3, align 8
  %6 = load ptr, ptr %4, align 8
  call void @_ZSt19__iterator_categoryIPcENSt15iterator_traitsIT_E17iterator_categoryERKS2_(ptr noundef nonnull align 8 dereferenceable(8) %3)
  call void @_ZSt9__reverseIPcEvT_S1_St26random_access_iterator_tag(ptr noundef %5, ptr noundef %6)
  ret void
}

; Function Attrs: mustprogress nounwind uwtable
define linkonce_odr void @_ZN4pkpy10pod_vectorIcLi2EE9push_backIlEEvOT_(ptr noundef nonnull align 8 dereferenceable(16) %0, ptr noundef nonnull align 8 dereferenceable(8) %1) #5 comdat align 2 {
  %3 = alloca ptr, align 8
  %4 = alloca ptr, align 8
  store ptr %0, ptr %3, align 8
  store ptr %1, ptr %4, align 8
  %5 = load ptr, ptr %3, align 8
  %6 = getelementptr inbounds %"struct.pkpy::pod_vector", ptr %5, i32 0, i32 0
  %7 = load i32, ptr %6, align 8
  %8 = getelementptr inbounds %"struct.pkpy::pod_vector", ptr %5, i32 0, i32 1
  %9 = load i32, ptr %8, align 4
  %10 = icmp eq i32 %7, %9
  br i1 %10, label %11, label %15

11:                                               ; preds = %2
  %12 = getelementptr inbounds %"struct.pkpy::pod_vector", ptr %5, i32 0, i32 1
  %13 = load i32, ptr %12, align 4
  %14 = mul nsw i32 %13, 2
  call void @_ZN4pkpy10pod_vectorIcLi2EE7reserveEi(ptr noundef nonnull align 8 dereferenceable(16) %5, i32 noundef %14)
  br label %15

15:                                               ; preds = %11, %2
  %16 = load ptr, ptr %4, align 8
  %17 = load i64, ptr %16, align 8
  %18 = trunc i64 %17 to i8
  %19 = getelementptr inbounds %"struct.pkpy::pod_vector", ptr %5, i32 0, i32 2
  %20 = load ptr, ptr %19, align 8
  %21 = getelementptr inbounds %"struct.pkpy::pod_vector", ptr %5, i32 0, i32 0
  %22 = load i32, ptr %21, align 8
  %23 = add nsw i32 %22, 1
  store i32 %23, ptr %21, align 8
  %24 = sext i32 %22 to i64
  %25 = getelementptr inbounds i8, ptr %20, i64 %24
  store i8 %18, ptr %25, align 1
  ret void
}

; Function Attrs: mustprogress nounwind uwtable
define linkonce_odr noundef ptr @_ZN4pkpy10pod_vectorIcLi2EE3endEv(ptr noundef nonnull align 8 dereferenceable(16) %0) #5 comdat align 2 {
  %2 = alloca ptr, align 8
  store ptr %0, ptr %2, align 8
  %3 = load ptr, ptr %2, align 8
  %4 = getelementptr inbounds %"struct.pkpy::pod_vector", ptr %3, i32 0, i32 2
  %5 = load ptr, ptr %4, align 8
  %6 = getelementptr inbounds %"struct.pkpy::pod_vector", ptr %3, i32 0, i32 0
  %7 = load i32, ptr %6, align 8
  %8 = sext i32 %7 to i64
  %9 = getelementptr inbounds i8, ptr %5, i64 %8
  ret ptr %9
}

; Function Attrs: mustprogress nounwind uwtable
define linkonce_odr void @_ZN4pkpy10pod_vectorIcLi2EE9push_backIcEEvOT_(ptr noundef nonnull align 8 dereferenceable(16) %0, ptr noundef nonnull align 1 dereferenceable(1) %1) #5 comdat align 2 {
  %3 = alloca ptr, align 8
  %4 = alloca ptr, align 8
  store ptr %0, ptr %3, align 8
  store ptr %1, ptr %4, align 8
  %5 = load ptr, ptr %3, align 8
  %6 = getelementptr inbounds %"struct.pkpy::pod_vector", ptr %5, i32 0, i32 0
  %7 = load i32, ptr %6, align 8
  %8 = getelementptr inbounds %"struct.pkpy::pod_vector", ptr %5, i32 0, i32 1
  %9 = load i32, ptr %8, align 4
  %10 = icmp eq i32 %7, %9
  br i1 %10, label %11, label %15

11:                                               ; preds = %2
  %12 = getelementptr inbounds %"struct.pkpy::pod_vector", ptr %5, i32 0, i32 1
  %13 = load i32, ptr %12, align 4
  %14 = mul nsw i32 %13, 2
  call void @_ZN4pkpy10pod_vectorIcLi2EE7reserveEi(ptr noundef nonnull align 8 dereferenceable(16) %5, i32 noundef %14)
  br label %15

15:                                               ; preds = %11, %2
  %16 = load ptr, ptr %4, align 8
  %17 = load i8, ptr %16, align 1
  %18 = getelementptr inbounds %"struct.pkpy::pod_vector", ptr %5, i32 0, i32 2
  %19 = load ptr, ptr %18, align 8
  %20 = getelementptr inbounds %"struct.pkpy::pod_vector", ptr %5, i32 0, i32 0
  %21 = load i32, ptr %20, align 8
  %22 = add nsw i32 %21, 1
  store i32 %22, ptr %20, align 8
  %23 = sext i32 %21 to i64
  %24 = getelementptr inbounds i8, ptr %19, i64 %23
  store i8 %17, ptr %24, align 1
  ret void
}

; Function Attrs: mustprogress nounwind uwtable
define linkonce_odr void @_ZN4pkpy10pod_vectorIcLi2EE7reserveEi(ptr noundef nonnull align 8 dereferenceable(16) %0, i32 noundef %1) #5 comdat align 2 {
  %3 = alloca ptr, align 8
  %4 = alloca i32, align 4
  %5 = alloca ptr, align 8
  store ptr %0, ptr %3, align 8
  store i32 %1, ptr %4, align 4
  %6 = load ptr, ptr %3, align 8
  %7 = load i32, ptr %4, align 4
  %8 = getelementptr inbounds %"struct.pkpy::pod_vector", ptr %6, i32 0, i32 1
  %9 = load i32, ptr %8, align 4
  %10 = icmp sle i32 %7, %9
  br i1 %10, label %11, label %12

11:                                               ; preds = %2
  br label %34

12:                                               ; preds = %2
  %13 = load i32, ptr %4, align 4
  %14 = getelementptr inbounds %"struct.pkpy::pod_vector", ptr %6, i32 0, i32 1
  store i32 %13, ptr %14, align 4
  %15 = getelementptr inbounds %"struct.pkpy::pod_vector", ptr %6, i32 0, i32 2
  %16 = load ptr, ptr %15, align 8
  store ptr %16, ptr %5, align 8
  %17 = getelementptr inbounds %"struct.pkpy::pod_vector", ptr %6, i32 0, i32 1
  %18 = load i32, ptr %17, align 4
  %19 = mul nsw i32 %18, 1
  %20 = sext i32 %19 to i64
  %21 = call noundef ptr @_ZN4pkpy12pool64_allocEm(i64 noundef %20) #3
  %22 = getelementptr inbounds %"struct.pkpy::pod_vector", ptr %6, i32 0, i32 2
  store ptr %21, ptr %22, align 8
  %23 = load ptr, ptr %5, align 8
  %24 = icmp ne ptr %23, null
  br i1 %24, label %25, label %34

25:                                               ; preds = %12
  %26 = getelementptr inbounds %"struct.pkpy::pod_vector", ptr %6, i32 0, i32 2
  %27 = load ptr, ptr %26, align 8
  %28 = load ptr, ptr %5, align 8
  %29 = getelementptr inbounds %"struct.pkpy::pod_vector", ptr %6, i32 0, i32 0
  %30 = load i32, ptr %29, align 8
  %31 = mul nsw i32 1, %30
  %32 = sext i32 %31 to i64
  call void @llvm.memcpy.p0.p0.i64(ptr align 1 %27, ptr align 1 %28, i64 %32, i1 false)
  %33 = load ptr, ptr %5, align 8
  call void @_ZN4pkpy14pool64_deallocEPv(ptr noundef %33) #3
  br label %34

34:                                               ; preds = %25, %12, %11
  ret void
}

; Function Attrs: mustprogress nounwind uwtable
define linkonce_odr noundef i32 @_ZNK4pkpy10pod_vectorIcLi2EE4sizeEv(ptr noundef nonnull align 8 dereferenceable(16) %0) #5 comdat align 2 {
  %2 = alloca ptr, align 8
  store ptr %0, ptr %2, align 8
  %3 = load ptr, ptr %2, align 8
  %4 = getelementptr inbounds %"struct.pkpy::pod_vector", ptr %3, i32 0, i32 0
  %5 = load i32, ptr %4, align 8
  ret i32 %5
}

; Function Attrs: mustprogress uwtable
define noundef nonnull align 8 dereferenceable(20) ptr @_ZN4pkpy7SStreamlsEl(ptr noundef nonnull align 8 dereferenceable(20) %0, i64 noundef %1) #4 align 2 {
  %3 = alloca ptr, align 8
  %4 = alloca ptr, align 8
  %5 = alloca i64, align 8
  %6 = alloca i8, align 1
  %7 = alloca i8, align 1
  %8 = alloca ptr, align 8
  %9 = alloca i64, align 8
  store ptr %0, ptr %4, align 8
  store i64 %1, ptr %5, align 8
  %10 = load ptr, ptr %4, align 8
  %11 = getelementptr inbounds %"struct.pkpy::SStream", ptr %10, i32 0, i32 0
  %12 = getelementptr inbounds %"struct.pkpy::SStream", ptr %10, i32 0, i32 0
  %13 = call noundef i32 @_ZNK4pkpy10pod_vectorIcLi2EE4sizeEv(ptr noundef nonnull align 8 dereferenceable(16) %12)
  %14 = add nsw i32 %13, 24
  call void @_ZN4pkpy10pod_vectorIcLi2EE7reserveEi(ptr noundef nonnull align 8 dereferenceable(16) %11, i32 noundef %14)
  %15 = load i64, ptr %5, align 8
  %16 = icmp eq i64 %15, 0
  br i1 %16, label %17, label %19

17:                                               ; preds = %2
  %18 = getelementptr inbounds %"struct.pkpy::SStream", ptr %10, i32 0, i32 0
  store i8 48, ptr %6, align 1
  call void @_ZN4pkpy10pod_vectorIcLi2EE9push_backIcEEvOT_(ptr noundef nonnull align 8 dereferenceable(16) %18, ptr noundef nonnull align 1 dereferenceable(1) %6)
  store ptr %10, ptr %3, align 8
  br label %43

19:                                               ; preds = %2
  %20 = load i64, ptr %5, align 8
  %21 = icmp slt i64 %20, 0
  br i1 %21, label %22, label %26

22:                                               ; preds = %19
  %23 = getelementptr inbounds %"struct.pkpy::SStream", ptr %10, i32 0, i32 0
  store i8 45, ptr %7, align 1
  call void @_ZN4pkpy10pod_vectorIcLi2EE9push_backIcEEvOT_(ptr noundef nonnull align 8 dereferenceable(16) %23, ptr noundef nonnull align 1 dereferenceable(1) %7)
  %24 = load i64, ptr %5, align 8
  %25 = sub nsw i64 0, %24
  store i64 %25, ptr %5, align 8
  br label %26

26:                                               ; preds = %22, %19
  %27 = getelementptr inbounds %"struct.pkpy::SStream", ptr %10, i32 0, i32 0
  %28 = call noundef ptr @_ZN4pkpy10pod_vectorIcLi2EE3endEv(ptr noundef nonnull align 8 dereferenceable(16) %27)
  store ptr %28, ptr %8, align 8
  br label %29

29:                                               ; preds = %32, %26
  %30 = load i64, ptr %5, align 8
  %31 = icmp ne i64 %30, 0
  br i1 %31, label %32, label %39

32:                                               ; preds = %29
  %33 = getelementptr inbounds %"struct.pkpy::SStream", ptr %10, i32 0, i32 0
  %34 = load i64, ptr %5, align 8
  %35 = srem i64 %34, 10
  %36 = add nsw i64 48, %35
  store i64 %36, ptr %9, align 8
  call void @_ZN4pkpy10pod_vectorIcLi2EE9push_backIlEEvOT_(ptr noundef nonnull align 8 dereferenceable(16) %33, ptr noundef nonnull align 8 dereferenceable(8) %9)
  %37 = load i64, ptr %5, align 8
  %38 = sdiv i64 %37, 10
  store i64 %38, ptr %5, align 8
  br label %29, !llvm.loop !29

39:                                               ; preds = %29
  %40 = load ptr, ptr %8, align 8
  %41 = getelementptr inbounds %"struct.pkpy::SStream", ptr %10, i32 0, i32 0
  %42 = call noundef ptr @_ZN4pkpy10pod_vectorIcLi2EE3endEv(ptr noundef nonnull align 8 dereferenceable(16) %41)
  call void @_ZSt7reverseIPcEvT_S1_(ptr noundef %40, ptr noundef %42)
  store ptr %10, ptr %3, align 8
  br label %43

43:                                               ; preds = %39, %17
  %44 = load ptr, ptr %3, align 8
  ret ptr %44
}