; Function Attrs: mustprogress nounwind uwtable
define noundef nonnull align 8 dereferenceable(20) ptr @_ZN4pkpy7SStreamlsEl(ptr noundef nonnull returned align 8 dereferenceable(20) %0, i64 noundef %1) local_unnamed_addr #4 align 2 {
  %3 = load i32, ptr %0, align 8
  %4 = add nsw i32 %3, 24
  %5 = getelementptr inbounds i8, ptr %0, i64 4
  %6 = load i32, ptr %5, align 4
  %.not.i = icmp slt i32 %6, %4
  br i1 %.not.i, label %7, label %_ZN4pkpy10pod_vectorIcLi2EE7reserveEi.exit

7:                                                ; preds = %2
  store i32 %4, ptr %5, align 4
  %8 = getelementptr inbounds i8, ptr %0, i64 8
  %9 = load ptr, ptr %8, align 8
  %10 = sext i32 %4 to i64
  %11 = tail call noundef ptr @_ZN4pkpy12pool64_allocEm(i64 noundef %10) #23
  store ptr %11, ptr %8, align 8
  %.not6.i = icmp eq ptr %9, null
  br i1 %.not6.i, label %_ZN4pkpy10pod_vectorIcLi2EE7reserveEi.exit, label %12

12:                                               ; preds = %7
  %13 = load i32, ptr %0, align 8
  %14 = sext i32 %13 to i64
  tail call void @llvm.memcpy.p0.p0.i64(ptr align 1 %11, ptr nonnull align 1 %9, i64 %14, i1 false)
  tail call void @_ZN4pkpy14pool64_deallocEPv(ptr noundef nonnull %9) #23
  br label %_ZN4pkpy10pod_vectorIcLi2EE7reserveEi.exit

_ZN4pkpy10pod_vectorIcLi2EE7reserveEi.exit:       ; preds = %2, %7, %12
  %15 = icmp eq i64 %1, 0
  br i1 %15, label %16, label %35

16:                                               ; preds = %_ZN4pkpy10pod_vectorIcLi2EE7reserveEi.exit
  %17 = load i32, ptr %0, align 8
  %18 = load i32, ptr %5, align 4
  %19 = icmp eq i32 %17, %18
  br i1 %19, label %20, label %_ZN4pkpy10pod_vectorIcLi2EE9push_backIcEEvOT_.exit

20:                                               ; preds = %16
  %21 = shl nsw i32 %17, 1
  %.not.i.i = icmp slt i32 %17, %21
  br i1 %.not.i.i, label %22, label %_ZN4pkpy10pod_vectorIcLi2EE9push_backIcEEvOT_.exit

22:                                               ; preds = %20
  store i32 %21, ptr %5, align 4
  %23 = getelementptr inbounds i8, ptr %0, i64 8
  %24 = load ptr, ptr %23, align 8
  %25 = sext i32 %21 to i64
  %26 = tail call noundef ptr @_ZN4pkpy12pool64_allocEm(i64 noundef %25) #23
  store ptr %26, ptr %23, align 8
  %.not6.i.i = icmp eq ptr %24, null
  %.pre2.i = load i32, ptr %0, align 8
  br i1 %.not6.i.i, label %_ZN4pkpy10pod_vectorIcLi2EE9push_backIcEEvOT_.exit, label %27

27:                                               ; preds = %22
  %28 = sext i32 %.pre2.i to i64
  tail call void @llvm.memcpy.p0.p0.i64(ptr align 1 %26, ptr nonnull align 1 %24, i64 %28, i1 false)
  tail call void @_ZN4pkpy14pool64_deallocEPv(ptr noundef nonnull %24) #23
  %.pre.i = load i32, ptr %0, align 8
  br label %_ZN4pkpy10pod_vectorIcLi2EE9push_backIcEEvOT_.exit

_ZN4pkpy10pod_vectorIcLi2EE9push_backIcEEvOT_.exit: ; preds = %16, %20, %22, %27
  %29 = phi i32 [ %.pre.i, %27 ], [ %.pre2.i, %22 ], [ %17, %20 ], [ %17, %16 ]
  %30 = getelementptr inbounds i8, ptr %0, i64 8
  %31 = load ptr, ptr %30, align 8
  %32 = add nsw i32 %29, 1
  store i32 %32, ptr %0, align 8
  %33 = sext i32 %29 to i64
  %34 = getelementptr inbounds i8, ptr %31, i64 %33
  store i8 48, ptr %34, align 1
  br label %_ZSt7reverseIPcEvT_S1_.exit

35:                                               ; preds = %_ZN4pkpy10pod_vectorIcLi2EE7reserveEi.exit
  %36 = icmp slt i64 %1, 0
  %.pre21 = load i32, ptr %0, align 8
  br i1 %36, label %37, label %56

37:                                               ; preds = %35
  %38 = load i32, ptr %5, align 4
  %39 = icmp eq i32 %.pre21, %38
  br i1 %39, label %40, label %_ZN4pkpy10pod_vectorIcLi2EE9push_backIcEEvOT_.exit13

40:                                               ; preds = %37
  %41 = shl nsw i32 %.pre21, 1
  %.not.i.i9 = icmp slt i32 %.pre21, %41
  br i1 %.not.i.i9, label %42, label %_ZN4pkpy10pod_vectorIcLi2EE9push_backIcEEvOT_.exit13

42:                                               ; preds = %40
  store i32 %41, ptr %5, align 4
  %43 = getelementptr inbounds i8, ptr %0, i64 8
  %44 = load ptr, ptr %43, align 8
  %45 = sext i32 %41 to i64
  %46 = tail call noundef ptr @_ZN4pkpy12pool64_allocEm(i64 noundef %45) #23
  store ptr %46, ptr %43, align 8
  %.not6.i.i10 = icmp eq ptr %44, null
  %.pre2.i11 = load i32, ptr %0, align 8
  br i1 %.not6.i.i10, label %_ZN4pkpy10pod_vectorIcLi2EE9push_backIcEEvOT_.exit13, label %47

47:                                               ; preds = %42
  %48 = sext i32 %.pre2.i11 to i64
  tail call void @llvm.memcpy.p0.p0.i64(ptr align 1 %46, ptr nonnull align 1 %44, i64 %48, i1 false)
  tail call void @_ZN4pkpy14pool64_deallocEPv(ptr noundef nonnull %44) #23
  %.pre.i12 = load i32, ptr %0, align 8
  br label %_ZN4pkpy10pod_vectorIcLi2EE9push_backIcEEvOT_.exit13

_ZN4pkpy10pod_vectorIcLi2EE9push_backIcEEvOT_.exit13: ; preds = %37, %40, %42, %47
  %49 = phi i32 [ %.pre.i12, %47 ], [ %.pre2.i11, %42 ], [ %.pre21, %40 ], [ %.pre21, %37 ]
  %50 = getelementptr inbounds i8, ptr %0, i64 8
  %51 = load ptr, ptr %50, align 8
  %52 = add nsw i32 %49, 1
  store i32 %52, ptr %0, align 8
  %53 = sext i32 %49 to i64
  %54 = getelementptr inbounds i8, ptr %51, i64 %53
  store i8 45, ptr %54, align 1
  %55 = sub nsw i64 0, %1
  %.pre = load i32, ptr %0, align 8
  br label %56

56:                                               ; preds = %_ZN4pkpy10pod_vectorIcLi2EE9push_backIcEEvOT_.exit13, %35
  %57 = phi i32 [ %.pre, %_ZN4pkpy10pod_vectorIcLi2EE9push_backIcEEvOT_.exit13 ], [ %.pre21, %35 ]
  %.08 = phi i64 [ %55, %_ZN4pkpy10pod_vectorIcLi2EE9push_backIcEEvOT_.exit13 ], [ %1, %35 ]
  %58 = getelementptr inbounds i8, ptr %0, i64 8
  %59 = load ptr, ptr %58, align 8
  %60 = sext i32 %57 to i64
  br label %61

61:                                               ; preds = %56, %_ZN4pkpy10pod_vectorIcLi2EE9push_backIlEEvOT_.exit
  %.120 = phi i64 [ %.08, %56 ], [ %63, %_ZN4pkpy10pod_vectorIcLi2EE9push_backIlEEvOT_.exit ]
  %62 = urem i64 %.120, 10
  %63 = udiv i64 %.120, 10
  %64 = load i32, ptr %0, align 8
  %65 = load i32, ptr %5, align 4
  %66 = icmp eq i32 %64, %65
  br i1 %66, label %67, label %_ZN4pkpy10pod_vectorIcLi2EE9push_backIlEEvOT_.exit

67:                                               ; preds = %61
  %68 = shl nsw i32 %64, 1
  %.not.i.i14 = icmp slt i32 %64, %68
  br i1 %.not.i.i14, label %69, label %_ZN4pkpy10pod_vectorIcLi2EE9push_backIlEEvOT_.exit

69:                                               ; preds = %67
  store i32 %68, ptr %5, align 4
  %70 = load ptr, ptr %58, align 8
  %71 = sext i32 %68 to i64
  %72 = tail call noundef ptr @_ZN4pkpy12pool64_allocEm(i64 noundef %71) #23
  store ptr %72, ptr %58, align 8
  %.not6.i.i15 = icmp eq ptr %70, null
  %.pre2.i16 = load i32, ptr %0, align 8
  br i1 %.not6.i.i15, label %_ZN4pkpy10pod_vectorIcLi2EE9push_backIlEEvOT_.exit, label %73

73:                                               ; preds = %69
  %74 = sext i32 %.pre2.i16 to i64
  tail call void @llvm.memcpy.p0.p0.i64(ptr align 1 %72, ptr nonnull align 1 %70, i64 %74, i1 false)
  tail call void @_ZN4pkpy14pool64_deallocEPv(ptr noundef nonnull %70) #23
  %.pre.i17 = load i32, ptr %0, align 8
  br label %_ZN4pkpy10pod_vectorIcLi2EE9push_backIlEEvOT_.exit

_ZN4pkpy10pod_vectorIcLi2EE9push_backIlEEvOT_.exit: ; preds = %61, %67, %69, %73
  %75 = phi i32 [ %.pre.i17, %73 ], [ %.pre2.i16, %69 ], [ %64, %67 ], [ %64, %61 ]
  %76 = trunc nuw nsw i64 %62 to i8
  %77 = or disjoint i8 %76, 48
  %78 = load ptr, ptr %58, align 8
  %79 = add nsw i32 %75, 1
  store i32 %79, ptr %0, align 8
  %80 = sext i32 %75 to i64
  %81 = getelementptr inbounds i8, ptr %78, i64 %80
  store i8 %77, ptr %81, align 1
  %.not = icmp ult i64 %.120, 10
  br i1 %.not, label %82, label %61, !llvm.loop !89

82:                                               ; preds = %_ZN4pkpy10pod_vectorIcLi2EE9push_backIlEEvOT_.exit
  %83 = getelementptr inbounds i8, ptr %59, i64 %60
  %84 = load ptr, ptr %58, align 8
  %85 = load i32, ptr %0, align 8
  %86 = sext i32 %85 to i64
  %87 = getelementptr inbounds i8, ptr %84, i64 %86
  %88 = icmp ne ptr %83, %87
  %.012.i.i = getelementptr inbounds i8, ptr %87, i64 -1
  %89 = icmp ugt ptr %.012.i.i, %83
  %or.cond.i.i = select i1 %88, i1 %89, i1 false
  br i1 %or.cond.i.i, label %.lr.ph.i.i, label %_ZSt7reverseIPcEvT_S1_.exit

.lr.ph.i.i:                                       ; preds = %82, %.lr.ph.i.i
  %.014.i.i = phi ptr [ %.0.i.i, %.lr.ph.i.i ], [ %.012.i.i, %82 ]
  %.0913.i.i = phi ptr [ %92, %.lr.ph.i.i ], [ %83, %82 ]
  %90 = load i8, ptr %.0913.i.i, align 1
  %91 = load i8, ptr %.014.i.i, align 1
  store i8 %91, ptr %.0913.i.i, align 1
  store i8 %90, ptr %.014.i.i, align 1
  %92 = getelementptr inbounds i8, ptr %.0913.i.i, i64 1
  %.0.i.i = getelementptr inbounds i8, ptr %.014.i.i, i64 -1
  %93 = icmp ult ptr %92, %.0.i.i
  br i1 %93, label %.lr.ph.i.i, label %_ZSt7reverseIPcEvT_S1_.exit, !llvm.loop !90

_ZSt7reverseIPcEvT_S1_.exit:                      ; preds = %.lr.ph.i.i, %82, %_ZN4pkpy10pod_vectorIcLi2EE9push_backIcEEvOT_.exit
  ret ptr %0
}